; Function Attrs: mustprogress uwtable
define void @_ZN8nanobind6detail7delitemEP7_objectS2_(ptr noundef %0, ptr noundef %1) local_unnamed_addr #15 {
  %3 = tail call i32 @PyObject_DelItem(ptr noundef %0, ptr noundef %1)
  %.not = icmp eq i32 %3, 0
  br i1 %.not, label %5, label %4

4:                                                ; preds = %2
  tail call void @_ZN8nanobind6detail18raise_python_errorEv() #28
  unreachable

5:                                                ; preds = %2
  ret void
}